target datalayout = "e-m:e-p270:32:32-p271:32:32-p272:64:64-i64:64-i128:128-f80:128-n8:16:32:64-S128"
target triple = "x86_64-pc-linux-gnu"

; Function Attrs: mustprogress noinline uwtable
define internal void @_ZN6google24glog_internal_namespace_12_GLOBAL__N_115DemangleInplaceEPcm(ptr noundef %0, i64 noundef %1) #5 {
  %3 = alloca ptr, align 8
  %4 = alloca i64, align 8
  %5 = alloca [256 x i8], align 16
  %6 = alloca i64, align 8
  store ptr %0, ptr %3, align 8, !tbaa !9
  store i64 %1, ptr %4, align 8, !tbaa !11
  call void @llvm.lifetime.start.p0(i64 256, ptr %5) #14
  %7 = load ptr, ptr %3, align 8, !tbaa !9
  %8 = getelementptr inbounds [256 x i8], ptr %5, i64 0, i64 0
  %9 = call noundef zeroext i1 @_ZN6google24glog_internal_namespace_8DemangleEPKcPcm(ptr noundef %7, ptr noundef %8, i64 noundef 256)
  br i1 %9, label %10, label %29

10:                                               ; preds = %2
  call void @llvm.lifetime.start.p0(i64 8, ptr %6) #14
  %11 = getelementptr inbounds [256 x i8], ptr %5, i64 0, i64 0
  %12 = call i64 @strlen(ptr noundef %11) #15
  store i64 %12, ptr %6, align 8, !tbaa !11
  %13 = load i64, ptr %6, align 8, !tbaa !11
  %14 = add i64 %13, 1
  %15 = load i64, ptr %4, align 8, !tbaa !11
  %16 = icmp ule i64 %14, %15
  br i1 %16, label %17, label %28

17:                                               ; preds = %10
  %18 = load i64, ptr %6, align 8, !tbaa !11
  %19 = icmp ult i64 %18, 256
  br i1 %19, label %20, label %21

20:                                               ; preds = %17
  br label %23

21:                                               ; preds = %17
  call void @abort() #16
  unreachable

22:                                               ; No predecessors!
  br label %23

23:                                               ; preds = %22, %20
  %24 = load ptr, ptr %3, align 8, !tbaa !9
  %25 = getelementptr inbounds [256 x i8], ptr %5, i64 0, i64 0
  %26 = load i64, ptr %6, align 8, !tbaa !11
  %27 = add i64 %26, 1
  call void @llvm.memmove.p0.p0.i64(ptr align 1 %24, ptr align 16 %25, i64 %27, i1 false)
  br label %28

28:                                               ; preds = %23, %10
  call void @llvm.lifetime.end.p0(i64 8, ptr %6) #14
  br label %29

29:                                               ; preds = %28, %2
  call void @llvm.lifetime.end.p0(i64 256, ptr %5) #14
  ret void
}