; Function Attrs: mustprogress noinline uwtable
define internal fastcc void @_ZN6google24glog_internal_namespace_12_GLOBAL__N_115DemangleInplaceEPcm(ptr noundef %0, i64 noundef %1) unnamed_addr #5 {
  %3 = alloca [256 x i8], align 16
  call void @llvm.lifetime.start.p0(i64 256, ptr nonnull %3) #20
  %4 = call noundef zeroext i1 @_ZN6google24glog_internal_namespace_8DemangleEPKcPcm(ptr noundef %0, ptr noundef nonnull %3, i64 noundef 256)
  br i1 %4, label %5, label %12

5:                                                ; preds = %2
  %6 = call i64 @strlen(ptr noundef nonnull dereferenceable(1) %3) #23
  %7 = add i64 %6, 1
  %.not = icmp ugt i64 %7, %1
  br i1 %.not, label %12, label %8

8:                                                ; preds = %5
  %9 = icmp ult i64 %6, 256
  br i1 %9, label %11, label %10

10:                                               ; preds = %8
  call void @abort() #21
  unreachable

11:                                               ; preds = %8
  call void @llvm.memcpy.p0.p0.i64(ptr align 1 %0, ptr nonnull align 16 %3, i64 %7, i1 false)
  br label %12

12:                                               ; preds = %5, %11, %2
  call void @llvm.lifetime.end.p0(i64 256, ptr nonnull %3) #20
  ret void
}